; ModuleID = '56/798.c'
source_filename = "56/798.c"
target datalayout = "e-m:e-p270:32:32-p271:32:32-p272:64:64-i64:64-f80:128-n8:16:32:64-S128"
target triple = "x86_64-pc-linux-gnu"

@.str = private unnamed_addr constant [3 x i8] c"%d\00", align 1
@.str.1 = private unnamed_addr constant [4 x i8] c"%d\0A\00", align 1

; Function Attrs: noinline nounwind uwtable
define dso_local void @main() #0 {
  %1 = alloca [5 x i32], align 16
  %2 = alloca i32, align 4
  %3 = alloca i32, align 4
  %4 = alloca i32, align 4
  %5 = alloca i32, align 4
  %6 = alloca i32, align 4
  %7 = alloca i32, align 4
  %8 = alloca i32, align 4
  %9 = bitcast [5 x i32]* %1 to i8*
  call void @llvm.memset.p0i8.i64(i8* align 16 %9, i8 0, i64 20, i1 false)
  %10 = call i32 (i8*, ...) @__isoc99_scanf(i8* getelementptr inbounds ([3 x i8], [3 x i8]* @.str, i64 0, i64 0), i32* %2)
  store i32 0, i32* %3, align 4
  store i32 0, i32* %4, align 4
  br label %11

11:                                               ; preds = %22, %0
  %12 = load i32, i32* %4, align 4
  %13 = icmp slt i32 %12, 5
  br i1 %13, label %14, label %25

14:                                               ; preds = %11
  %15 = load i32, i32* %2, align 4
  %16 = srem i32 %15, 10
  %17 = load i32, i32* %4, align 4
  %18 = sext i32 %17 to i64
  %19 = getelementptr inbounds [5 x i32], [5 x i32]* %1, i64 0, i64 %18
  store i32 %16, i32* %19, align 4
  %20 = load i32, i32* %2, align 4
  %21 = sdiv i32 %20, 10
  store i32 %21, i32* %2, align 4
  br label %22

22:                                               ; preds = %14
  %23 = load i32, i32* %4, align 4
  %24 = add nsw i32 %23, 1
  store i32 %24, i32* %4, align 4
  br label %11

25:                                               ; preds = %11
  store i32 0, i32* %5, align 4
  br label %26

26:                                               ; preds = %47, %25
  %27 = load i32, i32* %5, align 4
  %28 = icmp slt i32 %27, 5
  br i1 %28, label %29, label %50

29:                                               ; preds = %26
  %30 = load i32, i32* %5, align 4
  %31 = sext i32 %30 to i64
  %32 = getelementptr inbounds [5 x i32], [5 x i32]* %1, i64 0, i64 %31
  %33 = load i32, i32* %32, align 4
  %34 = icmp ne i32 %33, 0
  br i1 %34, label %35, label %44

35:                                               ; preds = %29
  %36 = load i32, i32* %3, align 4
  %37 = mul nsw i32 %36, 10
  store i32 %37, i32* %3, align 4
  %38 = load i32, i32* %5, align 4
  %39 = sext i32 %38 to i64
  %40 = getelementptr inbounds [5 x i32], [5 x i32]* %1, i64 0, i64 %39
  %41 = load i32, i32* %40, align 4
  %42 = load i32, i32* %3, align 4
  %43 = add nsw i32 %41, %42
  store i32 %43, i32* %3, align 4
  br label %46

44:                                               ; preds = %29
  %45 = load i32, i32* %3, align 4
  store i32 %45, i32* %3, align 4
  br label %46

46:                                               ; preds = %44, %35
  br label %47

47:                                               ; preds = %46
  %48 = load i32, i32* %5, align 4
  %49 = add nsw i32 %48, 1
  store i32 %49, i32* %5, align 4
  br label %26

50:                                               ; preds = %26
  %51 = load i32, i32* %3, align 4
  %52 = call i32 (i8*, ...) @printf(i8* getelementptr inbounds ([4 x i8], [4 x i8]* @.str.1, i64 0, i64 0), i32 %51)
  ret void
}

; Function Attrs: argmemonly nounwind willreturn
declare void @llvm.memset.p0i8.i64(i8* nocapture writeonly, i8, i64, i1 immarg) #1

declare dso_local i32 @__isoc99_scanf(i8*, ...) #2

declare dso_local i32 @printf(i8*, ...) #2


!llvm.module.flags = !{!0}
!llvm.ident = !{!1}

!0 = !{i32 1, !"wchar_size", i32 4}
!1 = !{!"clang version 10.0.0-4ubuntu1 "}
